target datalayout = "e-m:e-p270:32:32-p271:32:32-p272:64:64-i64:64-i128:128-f80:128-n8:16:32:64-S128"
target triple = "x86_64-pc-linux-gnu"

%struct.mbim_conv_info = type { ptr, ptr, i32, i32, i32 }

@hf_mbim_device_caps_info_device_type = internal global i32 0, align 4
@hf_mbim_device_caps_info_cellular_class = internal global i32 0, align 4
@hf_mbim_device_caps_info_voice_class = internal global i32 0, align 4
@hf_mbim_device_caps_info_sim_class = internal global i32 0, align 4
@hf_mbim_device_caps_info_data_class = internal global i32 0, align 4
@hf_mbim_device_caps_info_sms_caps = internal global i32 0, align 4
@hf_mbim_device_caps_info_control_caps = internal global i32 0, align 4
@hf_mbim_device_caps_info_max_sessions = internal global i32 0, align 4
@hf_mbim_device_caps_info_data_subclass = internal global i32 0, align 4
@hf_mbim_device_caps_info_wcdma_band_class = internal global i32 0, align 4
@.str.211 = private unnamed_addr constant [18 x i8] c"Custom Data Class\00", align 1
@hf_mbim_device_caps_info_v2_executor_index = internal global i32 0, align 4
@ett_mbim_bitmap = internal global i32 0, align 4
@ett_mbim_pair_list = internal global i32 0, align 4
@mbim_cellular_class_fields = internal constant [3 x ptr] [ptr @hf_mbim_cellular_class_gsm, ptr @hf_mbim_cellular_class_cdma, ptr null], align 16
@mbim_device_caps_info_sim_class_fields = internal constant [3 x ptr] [ptr @hf_mbim_device_caps_info_sim_class_logical, ptr @hf_mbim_device_caps_info_sim_class_removable, ptr null], align 16
@mbim_device_caps_info_sms_caps_fields = internal constant [5 x ptr] [ptr @hf_mbim_device_caps_info_sms_caps_pdu_receive, ptr @hf_mbim_device_caps_info_sms_caps_pdu_send, ptr @hf_mbim_device_caps_info_sms_caps_text_receive, ptr @hf_mbim_device_caps_info_sms_caps_text_send, ptr null], align 16
@mbim_data_subclass_fields = internal constant [6 x ptr] [ptr @hf_mbim_data_subclass_5gendc, ptr @hf_mbim_data_subclass_5gnr, ptr @hf_mbim_data_subclass_5gnedc, ptr @hf_mbim_data_subclass_5gelte, ptr @hf_mbim_data_subclass_5gngendc, ptr null], align 16
@.str.2600 = private unnamed_addr constant [15 x i8] c"LTE Band Class\00", align 1
@.str.2601 = private unnamed_addr constant [14 x i8] c"NR Band Class\00", align 1
@.str.2602 = private unnamed_addr constant [10 x i8] c"Device ID\00", align 1
@.str.2603 = private unnamed_addr constant [14 x i8] c"Firmware Info\00", align 1
@.str.2604 = private unnamed_addr constant [14 x i8] c"Hardware Info\00", align 1

; Function Attrs: nounwind uwtable
define internal void @mbim_dissect_device_caps_v3_and_higher_info(ptr noundef %0, ptr noundef %1, ptr noundef %2, i32 noundef %3, ptr noundef %4) #0 {
  %6 = alloca ptr, align 8
  %7 = alloca ptr, align 8
  %8 = alloca ptr, align 8
  %9 = alloca i32, align 4
  %10 = alloca ptr, align 8
  %11 = alloca ptr, align 8
  %12 = alloca ptr, align 8
  %13 = alloca ptr, align 8
  %14 = alloca ptr, align 8
  %15 = alloca ptr, align 8
  %16 = alloca ptr, align 8
  store ptr %0, ptr %6, align 8
  store ptr %1, ptr %7, align 8
  store ptr %2, ptr %8, align 8
  store i32 %3, ptr %9, align 4
  store ptr %4, ptr %10, align 8
  %17 = load ptr, ptr %8, align 8
  %18 = load i32, ptr @hf_mbim_device_caps_info_device_type, align 4
  %19 = load ptr, ptr %6, align 8
  %20 = load i32, ptr %9, align 4
  %21 = call ptr @proto_tree_add_item(ptr noundef %17, i32 noundef %18, ptr noundef %19, i32 noundef %20, i32 noundef 4, i32 noundef -2147483648)
  %22 = load i32, ptr %9, align 4
  %23 = add i32 %22, 4
  store i32 %23, ptr %9, align 4
  %24 = load ptr, ptr %6, align 8
  %25 = load i32, ptr %9, align 4
  %26 = call i32 @tvb_get_letohl(ptr noundef %24, i32 noundef %25)
  %27 = load ptr, ptr %10, align 8
  %28 = getelementptr inbounds %struct.mbim_conv_info, ptr %27, i32 0, i32 3
  store i32 %26, ptr %28, align 4
  %29 = load ptr, ptr %8, align 8
  %30 = load ptr, ptr %6, align 8
  %31 = load i32, ptr %9, align 4
  %32 = load i32, ptr @hf_mbim_device_caps_info_cellular_class, align 4
  %33 = load i32, ptr @ett_mbim_bitmap, align 4
  %34 = call ptr @proto_tree_add_bitmask(ptr noundef %29, ptr noundef %30, i32 noundef %31, i32 noundef %32, i32 noundef %33, ptr noundef @mbim_cellular_class_fields, i32 noundef -2147483648)
  %35 = load i32, ptr %9, align 4
  %36 = add i32 %35, 4
  store i32 %36, ptr %9, align 4
  %37 = load ptr, ptr %8, align 8
  %38 = load i32, ptr @hf_mbim_device_caps_info_voice_class, align 4
  %39 = load ptr, ptr %6, align 8
  %40 = load i32, ptr %9, align 4
  %41 = call ptr @proto_tree_add_item(ptr noundef %37, i32 noundef %38, ptr noundef %39, i32 noundef %40, i32 noundef 4, i32 noundef -2147483648)
  %42 = load i32, ptr %9, align 4
  %43 = add i32 %42, 4
  store i32 %43, ptr %9, align 4
  %44 = load ptr, ptr %8, align 8
  %45 = load ptr, ptr %6, align 8
  %46 = load i32, ptr %9, align 4
  %47 = load i32, ptr @hf_mbim_device_caps_info_sim_class, align 4
  %48 = load i32, ptr @ett_mbim_bitmap, align 4
  %49 = call ptr @proto_tree_add_bitmask(ptr noundef %44, ptr noundef %45, i32 noundef %46, i32 noundef %47, i32 noundef %48, ptr noundef @mbim_device_caps_info_sim_class_fields, i32 noundef -2147483648)
  %50 = load i32, ptr %9, align 4
  %51 = add i32 %50, 4
  store i32 %51, ptr %9, align 4
  %52 = load ptr, ptr %8, align 8
  %53 = load ptr, ptr %6, align 8
  %54 = load i32, ptr %9, align 4
  %55 = load i32, ptr @hf_mbim_device_caps_info_data_class, align 4
  %56 = load i32, ptr @ett_mbim_bitmap, align 4
  %57 = call ptr @proto_tree_add_bitmask(ptr noundef %52, ptr noundef %53, i32 noundef %54, i32 noundef %55, i32 noundef %56, ptr noundef @mbim_data_class_fields, i32 noundef -2147483648)
  %58 = load i32, ptr %9, align 4
  %59 = add i32 %58, 4
  store i32 %59, ptr %9, align 4
  %60 = load ptr, ptr %8, align 8
  %61 = load ptr, ptr %6, align 8
  %62 = load i32, ptr %9, align 4
  %63 = load i32, ptr @hf_mbim_device_caps_info_sms_caps, align 4
  %64 = load i32, ptr @ett_mbim_bitmap, align 4
  %65 = call ptr @proto_tree_add_bitmask(ptr noundef %60, ptr noundef %61, i32 noundef %62, i32 noundef %63, i32 noundef %64, ptr noundef @mbim_device_caps_info_sms_caps_fields, i32 noundef -2147483648)
  %66 = load i32, ptr %9, align 4
  %67 = add i32 %66, 4
  store i32 %67, ptr %9, align 4
  %68 = load ptr, ptr %8, align 8
  %69 = load ptr, ptr %6, align 8
  %70 = load i32, ptr %9, align 4
  %71 = load i32, ptr @hf_mbim_device_caps_info_control_caps, align 4
  %72 = load i32, ptr @ett_mbim_bitmap, align 4
  %73 = call ptr @proto_tree_add_bitmask(ptr noundef %68, ptr noundef %69, i32 noundef %70, i32 noundef %71, i32 noundef %72, ptr noundef @mbim_device_caps_info_control_caps_fields, i32 noundef -2147483648)
  %74 = load i32, ptr %9, align 4
  %75 = add i32 %74, 4
  store i32 %75, ptr %9, align 4
  %76 = load ptr, ptr %8, align 8
  %77 = load ptr, ptr %6, align 8
  %78 = load i32, ptr %9, align 4
  %79 = load i32, ptr @hf_mbim_device_caps_info_data_subclass, align 4
  %80 = load i32, ptr @ett_mbim_bitmap, align 4
  %81 = call ptr @proto_tree_add_bitmask(ptr noundef %76, ptr noundef %77, i32 noundef %78, i32 noundef %79, i32 noundef %80, ptr noundef @mbim_data_subclass_fields, i32 noundef -2147483648)
  %82 = load i32, ptr %9, align 4
  %83 = add i32 %82, 8
  store i32 %83, ptr %9, align 4
  %84 = load ptr, ptr %8, align 8
  %85 = load i32, ptr @hf_mbim_device_caps_info_max_sessions, align 4
  %86 = load ptr, ptr %6, align 8
  %87 = load i32, ptr %9, align 4
  %88 = call ptr @proto_tree_add_item(ptr noundef %84, i32 noundef %85, ptr noundef %86, i32 noundef %87, i32 noundef 4, i32 noundef -2147483648)
  %89 = load i32, ptr %9, align 4
  %90 = add i32 %89, 4
  store i32 %90, ptr %9, align 4
  %91 = load ptr, ptr %8, align 8
  %92 = load i32, ptr @hf_mbim_device_caps_info_v2_executor_index, align 4
  %93 = load ptr, ptr %6, align 8
  %94 = load i32, ptr %9, align 4
  %95 = call ptr @proto_tree_add_item(ptr noundef %91, i32 noundef %92, ptr noundef %93, i32 noundef %94, i32 noundef 4, i32 noundef -2147483648)
  %96 = load i32, ptr %9, align 4
  %97 = add i32 %96, 4
  store i32 %97, ptr %9, align 4
  %98 = load ptr, ptr %8, align 8
  %99 = load i32, ptr @hf_mbim_device_caps_info_wcdma_band_class, align 4
  %100 = load ptr, ptr %6, align 8
  %101 = load i32, ptr %9, align 4
  %102 = call ptr @proto_tree_add_item(ptr noundef %98, i32 noundef %99, ptr noundef %100, i32 noundef %101, i32 noundef 4, i32 noundef -2147483648)
  %103 = load i32, ptr %9, align 4
  %104 = add i32 %103, 4
  store i32 %104, ptr %9, align 4
  %105 = load ptr, ptr %8, align 8
  %106 = load ptr, ptr %6, align 8
  %107 = load i32, ptr %9, align 4
  %108 = load i32, ptr @ett_mbim_pair_list, align 4
  %109 = call ptr (ptr, ptr, i32, i32, i32, ptr, ptr, ...) @proto_tree_add_subtree_format(ptr noundef %105, ptr noundef %106, i32 noundef %107, i32 noundef 0, i32 noundef %108, ptr noundef null, ptr noundef @.str.2600)
  store ptr %109, ptr %11, align 8
  %110 = load ptr, ptr %6, align 8
  %111 = load ptr, ptr %7, align 8
  %112 = load ptr, ptr %11, align 8
  call void @mbim_dissect_tlv_ie(ptr noundef %110, ptr noundef %111, ptr noundef %112, ptr noundef %9)
  %113 = load ptr, ptr %8, align 8
  %114 = load ptr, ptr %6, align 8
  %115 = load i32, ptr %9, align 4
  %116 = load i32, ptr @ett_mbim_pair_list, align 4
  %117 = call ptr (ptr, ptr, i32, i32, i32, ptr, ptr, ...) @proto_tree_add_subtree_format(ptr noundef %113, ptr noundef %114, i32 noundef %115, i32 noundef 0, i32 noundef %116, ptr noundef null, ptr noundef @.str.2601)
  store ptr %117, ptr %12, align 8
  %118 = load ptr, ptr %6, align 8
  %119 = load ptr, ptr %7, align 8
  %120 = load ptr, ptr %12, align 8
  call void @mbim_dissect_tlv_ie(ptr noundef %118, ptr noundef %119, ptr noundef %120, ptr noundef %9)
  %121 = load ptr, ptr %8, align 8
  %122 = load ptr, ptr %6, align 8
  %123 = load i32, ptr %9, align 4
  %124 = load i32, ptr @ett_mbim_pair_list, align 4
  %125 = call ptr (ptr, ptr, i32, i32, i32, ptr, ptr, ...) @proto_tree_add_subtree_format(ptr noundef %121, ptr noundef %122, i32 noundef %123, i32 noundef 0, i32 noundef %124, ptr noundef null, ptr noundef @.str.211)
  store ptr %125, ptr %13, align 8
  %126 = load ptr, ptr %6, align 8
  %127 = load ptr, ptr %7, align 8
  %128 = load ptr, ptr %13, align 8
  call void @mbim_dissect_tlv_ie(ptr noundef %126, ptr noundef %127, ptr noundef %128, ptr noundef %9)
  %129 = load ptr, ptr %8, align 8
  %130 = load ptr, ptr %6, align 8
  %131 = load i32, ptr %9, align 4
  %132 = load i32, ptr @ett_mbim_pair_list, align 4
  %133 = call ptr (ptr, ptr, i32, i32, i32, ptr, ptr, ...) @proto_tree_add_subtree_format(ptr noundef %129, ptr noundef %130, i32 noundef %131, i32 noundef 0, i32 noundef %132, ptr noundef null, ptr noundef @.str.2602)
  store ptr %133, ptr %14, align 8
  %134 = load ptr, ptr %6, align 8
  %135 = load ptr, ptr %7, align 8
  %136 = load ptr, ptr %14, align 8
  call void @mbim_dissect_tlv_ie(ptr noundef %134, ptr noundef %135, ptr noundef %136, ptr noundef %9)
  %137 = load ptr, ptr %8, align 8
  %138 = load ptr, ptr %6, align 8
  %139 = load i32, ptr %9, align 4
  %140 = load i32, ptr @ett_mbim_pair_list, align 4
  %141 = call ptr (ptr, ptr, i32, i32, i32, ptr, ptr, ...) @proto_tree_add_subtree_format(ptr noundef %137, ptr noundef %138, i32 noundef %139, i32 noundef 0, i32 noundef %140, ptr noundef null, ptr noundef @.str.2603)
  store ptr %141, ptr %15, align 8
  %142 = load ptr, ptr %6, align 8
  %143 = load ptr, ptr %7, align 8
  %144 = load ptr, ptr %15, align 8
  call void @mbim_dissect_tlv_ie(ptr noundef %142, ptr noundef %143, ptr noundef %144, ptr noundef %9)
  %145 = load ptr, ptr %8, align 8
  %146 = load ptr, ptr %6, align 8
  %147 = load i32, ptr %9, align 4
  %148 = load i32, ptr @ett_mbim_pair_list, align 4
  %149 = call ptr (ptr, ptr, i32, i32, i32, ptr, ptr, ...) @proto_tree_add_subtree_format(ptr noundef %145, ptr noundef %146, i32 noundef %147, i32 noundef 0, i32 noundef %148, ptr noundef null, ptr noundef @.str.2604)
  store ptr %149, ptr %16, align 8
  %150 = load ptr, ptr %6, align 8
  %151 = load ptr, ptr %7, align 8
  %152 = load ptr, ptr %16, align 8
  call void @mbim_dissect_tlv_ie(ptr noundef %150, ptr noundef %151, ptr noundef %152, ptr noundef %9)
  ret void
}