; Function Attrs: nounwind uwtable
define internal fastcc void @mbim_dissect_device_caps_v3_and_higher_info(ptr noundef %0, ptr noundef %1, ptr noundef %2, i32 noundef %3, ptr noundef writeonly captures(none) initializes((20, 24)) %4) unnamed_addr #0 {
  %6 = alloca i32, align 4
  %7 = load i32, ptr @hf_mbim_device_caps_info_device_type, align 4
  %8 = tail call ptr @proto_tree_add_item(ptr noundef %2, i32 noundef %7, ptr noundef %0, i32 noundef %3, i32 noundef 4, i32 noundef -2147483648) #10
  %9 = add i32 %3, 4
  %10 = tail call i32 @tvb_get_letohl(ptr noundef %0, i32 noundef %9) #10
  %11 = getelementptr inbounds nuw i8, ptr %4, i64 20
  store i32 %10, ptr %11, align 4
  %12 = load i32, ptr @hf_mbim_device_caps_info_cellular_class, align 4
  %13 = load i32, ptr @ett_mbim_bitmap, align 4
  %14 = tail call ptr @proto_tree_add_bitmask(ptr noundef %2, ptr noundef %0, i32 noundef %9, i32 noundef %12, i32 noundef %13, ptr noundef nonnull @mbim_cellular_class_fields, i32 noundef -2147483648) #10
  %15 = add i32 %3, 8
  %16 = load i32, ptr @hf_mbim_device_caps_info_voice_class, align 4
  %17 = tail call ptr @proto_tree_add_item(ptr noundef %2, i32 noundef %16, ptr noundef %0, i32 noundef %15, i32 noundef 4, i32 noundef -2147483648) #10
  %18 = add i32 %3, 12
  %19 = load i32, ptr @hf_mbim_device_caps_info_sim_class, align 4
  %20 = load i32, ptr @ett_mbim_bitmap, align 4
  %21 = tail call ptr @proto_tree_add_bitmask(ptr noundef %2, ptr noundef %0, i32 noundef %18, i32 noundef %19, i32 noundef %20, ptr noundef nonnull @mbim_device_caps_info_sim_class_fields, i32 noundef -2147483648) #10
  %22 = add i32 %3, 16
  %23 = load i32, ptr @hf_mbim_device_caps_info_data_class, align 4
  %24 = load i32, ptr @ett_mbim_bitmap, align 4
  %25 = tail call ptr @proto_tree_add_bitmask(ptr noundef %2, ptr noundef %0, i32 noundef %22, i32 noundef %23, i32 noundef %24, ptr noundef nonnull @mbim_data_class_fields, i32 noundef -2147483648) #10
  %26 = add i32 %3, 20
  %27 = load i32, ptr @hf_mbim_device_caps_info_sms_caps, align 4
  %28 = load i32, ptr @ett_mbim_bitmap, align 4
  %29 = tail call ptr @proto_tree_add_bitmask(ptr noundef %2, ptr noundef %0, i32 noundef %26, i32 noundef %27, i32 noundef %28, ptr noundef nonnull @mbim_device_caps_info_sms_caps_fields, i32 noundef -2147483648) #10
  %30 = add i32 %3, 24
  %31 = load i32, ptr @hf_mbim_device_caps_info_control_caps, align 4
  %32 = load i32, ptr @ett_mbim_bitmap, align 4
  %33 = tail call ptr @proto_tree_add_bitmask(ptr noundef %2, ptr noundef %0, i32 noundef %30, i32 noundef %31, i32 noundef %32, ptr noundef nonnull @mbim_device_caps_info_control_caps_fields, i32 noundef -2147483648) #10
  %34 = add i32 %3, 28
  %35 = load i32, ptr @hf_mbim_device_caps_info_data_subclass, align 4
  %36 = load i32, ptr @ett_mbim_bitmap, align 4
  %37 = tail call ptr @proto_tree_add_bitmask(ptr noundef %2, ptr noundef %0, i32 noundef %34, i32 noundef %35, i32 noundef %36, ptr noundef nonnull @mbim_data_subclass_fields, i32 noundef -2147483648) #10
  %38 = add i32 %3, 36
  %39 = load i32, ptr @hf_mbim_device_caps_info_max_sessions, align 4
  %40 = tail call ptr @proto_tree_add_item(ptr noundef %2, i32 noundef %39, ptr noundef %0, i32 noundef %38, i32 noundef 4, i32 noundef -2147483648) #10
  %41 = add i32 %3, 40
  %42 = load i32, ptr @hf_mbim_device_caps_info_v2_executor_index, align 4
  %43 = tail call ptr @proto_tree_add_item(ptr noundef %2, i32 noundef %42, ptr noundef %0, i32 noundef %41, i32 noundef 4, i32 noundef -2147483648) #10
  %44 = add i32 %3, 44
  %45 = load i32, ptr @hf_mbim_device_caps_info_wcdma_band_class, align 4
  %46 = tail call ptr @proto_tree_add_item(ptr noundef %2, i32 noundef %45, ptr noundef %0, i32 noundef %44, i32 noundef 4, i32 noundef -2147483648) #10
  %47 = add i32 %3, 48
  store i32 %47, ptr %6, align 4
  %48 = load i32, ptr @ett_mbim_pair_list, align 4
  %49 = tail call ptr (ptr, ptr, i32, i32, i32, ptr, ptr, ...) @proto_tree_add_subtree_format(ptr noundef %2, ptr noundef %0, i32 noundef %47, i32 noundef 0, i32 noundef %48, ptr noundef null, ptr noundef nonnull @.str.2600) #10
  call fastcc void @mbim_dissect_tlv_ie(ptr noundef %0, ptr noundef %1, ptr noundef %49, ptr noundef %6)
  %50 = load i32, ptr %6, align 4
  %51 = load i32, ptr @ett_mbim_pair_list, align 4
  %52 = tail call ptr (ptr, ptr, i32, i32, i32, ptr, ptr, ...) @proto_tree_add_subtree_format(ptr noundef %2, ptr noundef %0, i32 noundef %50, i32 noundef 0, i32 noundef %51, ptr noundef null, ptr noundef nonnull @.str.2601) #10
  call fastcc void @mbim_dissect_tlv_ie(ptr noundef %0, ptr noundef %1, ptr noundef %52, ptr noundef %6)
  %53 = load i32, ptr %6, align 4
  %54 = load i32, ptr @ett_mbim_pair_list, align 4
  %55 = tail call ptr (ptr, ptr, i32, i32, i32, ptr, ptr, ...) @proto_tree_add_subtree_format(ptr noundef %2, ptr noundef %0, i32 noundef %53, i32 noundef 0, i32 noundef %54, ptr noundef null, ptr noundef nonnull @.str.211) #10
  call fastcc void @mbim_dissect_tlv_ie(ptr noundef %0, ptr noundef %1, ptr noundef %55, ptr noundef %6)
  %56 = load i32, ptr %6, align 4
  %57 = load i32, ptr @ett_mbim_pair_list, align 4
  %58 = tail call ptr (ptr, ptr, i32, i32, i32, ptr, ptr, ...) @proto_tree_add_subtree_format(ptr noundef %2, ptr noundef %0, i32 noundef %56, i32 noundef 0, i32 noundef %57, ptr noundef null, ptr noundef nonnull @.str.2602) #10
  call fastcc void @mbim_dissect_tlv_ie(ptr noundef %0, ptr noundef %1, ptr noundef %58, ptr noundef %6)
  %59 = load i32, ptr %6, align 4
  %60 = load i32, ptr @ett_mbim_pair_list, align 4
  %61 = tail call ptr (ptr, ptr, i32, i32, i32, ptr, ptr, ...) @proto_tree_add_subtree_format(ptr noundef %2, ptr noundef %0, i32 noundef %59, i32 noundef 0, i32 noundef %60, ptr noundef null, ptr noundef nonnull @.str.2603) #10
  call fastcc void @mbim_dissect_tlv_ie(ptr noundef %0, ptr noundef %1, ptr noundef %61, ptr noundef %6)
  %62 = load i32, ptr %6, align 4
  %63 = load i32, ptr @ett_mbim_pair_list, align 4
  %64 = tail call ptr (ptr, ptr, i32, i32, i32, ptr, ptr, ...) @proto_tree_add_subtree_format(ptr noundef %2, ptr noundef %0, i32 noundef %62, i32 noundef 0, i32 noundef %63, ptr noundef null, ptr noundef nonnull @.str.2604) #10
  call fastcc void @mbim_dissect_tlv_ie(ptr noundef %0, ptr noundef %1, ptr noundef %64, ptr noundef %6)
  ret void
}